target datalayout = "e-m:e-p270:32:32-p271:32:32-p272:64:64-i64:64-i128:128-f80:128-n8:16:32:64-S128"
target triple = "x86_64-pc-linux-gnu"

%struct._object = type { %union.anon, ptr }
%union.anon = type { i64 }
%struct._longobject = type { %struct._object, %struct._PyLongValue }
%struct._PyLongValue = type { i64, [1 x i32] }
%struct.anon = type { i32, i32 }

@.str.54 = private unnamed_addr constant [5 x i8] c"perm\00", align 1
@PyExc_OverflowError = external global ptr, align 8
@PyExc_ValueError = external global ptr, align 8
@_Py_NoneStruct = external global %struct._object, align 8
@.str.87 = private unnamed_addr constant [33 x i8] c"n must be a non-negative integer\00", align 1
@.str.88 = private unnamed_addr constant [33 x i8] c"k must be a non-negative integer\00", align 1
@.str.89 = private unnamed_addr constant [23 x i8] c"k must not exceed %lld\00", align 1

; Function Attrs: alwaysinline nounwind uwtable
define internal i32 @_Py_IsImmortal(ptr noundef %0) #7 {
  %2 = alloca ptr, align 8
  store ptr %0, ptr %2, align 8, !tbaa !3
  %3 = load ptr, ptr %2, align 8, !tbaa !3
  %4 = getelementptr inbounds nuw %struct._object, ptr %3, i32 0, i32 0
  %5 = getelementptr inbounds nuw %struct.anon, ptr %4, i32 0, i32 0
  %6 = load i32, ptr %5, align 8, !tbaa !47
  %7 = icmp slt i32 %6, 0
  %8 = zext i1 %7 to i32
  ret i32 %8
}

; Function Attrs: inlinehint nounwind uwtable
define internal zeroext i1 @_PyLong_IsNegative(ptr noundef %0) #6 {
  %2 = alloca ptr, align 8
  store ptr %0, ptr %2, align 8, !tbaa !73
  %3 = load ptr, ptr %2, align 8, !tbaa !73
  %4 = getelementptr inbounds nuw %struct._longobject, ptr %3, i32 0, i32 1
  %5 = getelementptr inbounds nuw %struct._PyLongValue, ptr %4, i32 0, i32 0
  %6 = load i64, ptr %5, align 8, !tbaa !75
  %7 = and i64 %6, 3
  %8 = icmp eq i64 %7, 2
  ret i1 %8
}

; Function Attrs: alwaysinline nounwind uwtable
define internal void @Py_DECREF(ptr noundef %0) #7 {
  %2 = alloca ptr, align 8
  store ptr %0, ptr %2, align 8, !tbaa !3
  %3 = load ptr, ptr %2, align 8, !tbaa !3
  %4 = call i32 @_Py_IsImmortal(ptr noundef %3)
  %5 = icmp ne i32 %4, 0
  br i1 %5, label %6, label %7

6:                                                ; preds = %1
  br label %16

7:                                                ; preds = %1
  %8 = load ptr, ptr %2, align 8, !tbaa !3
  %9 = getelementptr inbounds nuw %struct._object, ptr %8, i32 0, i32 0
  %10 = getelementptr inbounds nuw %struct.anon, ptr %9, i32 0, i32 0
  %11 = load i32, ptr %10, align 8, !tbaa !47
  %12 = add i32 %11, -1
  store i32 %12, ptr %10, align 8, !tbaa !47
  %13 = icmp eq i32 %12, 0
  br i1 %13, label %14, label %16

14:                                               ; preds = %7
  %15 = load ptr, ptr %2, align 8, !tbaa !3
  call void @_Py_Dealloc(ptr noundef %15)
  br label %16

16:                                               ; preds = %6, %14, %7
  ret void
}

; Function Attrs: nounwind uwtable
define internal ptr @math_perm_impl(ptr noundef %0, ptr noundef %1, ptr noundef %2) #0 {
  %4 = alloca ptr, align 8
  %5 = alloca ptr, align 8
  %6 = alloca ptr, align 8
  %7 = alloca ptr, align 8
  %8 = alloca ptr, align 8
  %9 = alloca i32, align 4
  %10 = alloca i32, align 4
  %11 = alloca i64, align 8
  %12 = alloca i64, align 8
  %13 = alloca i32, align 4
  store ptr %0, ptr %5, align 8, !tbaa !3
  store ptr %1, ptr %6, align 8, !tbaa !3
  store ptr %2, ptr %7, align 8, !tbaa !3
  call void @llvm.lifetime.start.p0(i64 8, ptr %8) #10
  store ptr null, ptr %8, align 8, !tbaa !3
  call void @llvm.lifetime.start.p0(i64 4, ptr %9) #10
  call void @llvm.lifetime.start.p0(i64 4, ptr %10) #10
  call void @llvm.lifetime.start.p0(i64 8, ptr %11) #10
  call void @llvm.lifetime.start.p0(i64 8, ptr %12) #10
  %14 = load ptr, ptr %7, align 8, !tbaa !3
  %15 = icmp eq ptr %14, @_Py_NoneStruct
  br i1 %15, label %16, label %20

16:                                               ; preds = %3
  %17 = load ptr, ptr %5, align 8, !tbaa !3
  %18 = load ptr, ptr %6, align 8, !tbaa !3
  %19 = call ptr @math_factorial(ptr noundef %17, ptr noundef %18)
  store ptr %19, ptr %4, align 8
  store i32 1, ptr %13, align 4
  br label %87

20:                                               ; preds = %3
  %21 = load ptr, ptr %6, align 8, !tbaa !3
  %22 = call ptr @PyNumber_Index(ptr noundef %21)
  store ptr %22, ptr %6, align 8, !tbaa !3
  %23 = load ptr, ptr %6, align 8, !tbaa !3
  %24 = icmp eq ptr %23, null
  br i1 %24, label %25, label %26

25:                                               ; preds = %20
  store ptr null, ptr %4, align 8
  store i32 1, ptr %13, align 4
  br label %87

26:                                               ; preds = %20
  %27 = load ptr, ptr %7, align 8, !tbaa !3
  %28 = call ptr @PyNumber_Index(ptr noundef %27)
  store ptr %28, ptr %7, align 8, !tbaa !3
  %29 = load ptr, ptr %7, align 8, !tbaa !3
  %30 = icmp eq ptr %29, null
  br i1 %30, label %31, label %33

31:                                               ; preds = %26
  %32 = load ptr, ptr %6, align 8, !tbaa !3
  call void @Py_DECREF(ptr noundef %32)
  store ptr null, ptr %4, align 8
  store i32 1, ptr %13, align 4
  br label %87

33:                                               ; preds = %26
  %34 = load ptr, ptr %6, align 8, !tbaa !3
  %35 = call zeroext i1 @_PyLong_IsNegative(ptr noundef %34)
  br i1 %35, label %36, label %38

36:                                               ; preds = %33
  %37 = load ptr, ptr @PyExc_ValueError, align 8, !tbaa !3
  call void @PyErr_SetString(ptr noundef %37, ptr noundef @.str.87)
  br label %84

38:                                               ; preds = %33
  %39 = load ptr, ptr %7, align 8, !tbaa !3
  %40 = call zeroext i1 @_PyLong_IsNegative(ptr noundef %39)
  br i1 %40, label %41, label %43

41:                                               ; preds = %38
  %42 = load ptr, ptr @PyExc_ValueError, align 8, !tbaa !3
  call void @PyErr_SetString(ptr noundef %42, ptr noundef @.str.88)
  br label %84

43:                                               ; preds = %38
  %44 = load ptr, ptr %6, align 8, !tbaa !3
  %45 = load ptr, ptr %7, align 8, !tbaa !3
  %46 = call i32 @PyObject_RichCompareBool(ptr noundef %44, ptr noundef %45, i32 noundef 0)
  store i32 %46, ptr %10, align 4, !tbaa !17
  %47 = load i32, ptr %10, align 4, !tbaa !17
  %48 = icmp ne i32 %47, 0
  br i1 %48, label %49, label %55

49:                                               ; preds = %43
  %50 = load i32, ptr %10, align 4, !tbaa !17
  %51 = icmp sgt i32 %50, 0
  br i1 %51, label %52, label %54

52:                                               ; preds = %49
  %53 = call ptr @PyLong_FromLong(i64 noundef 0)
  store ptr %53, ptr %8, align 8, !tbaa !3
  br label %80

54:                                               ; preds = %49
  br label %84

55:                                               ; preds = %43
  %56 = load ptr, ptr %7, align 8, !tbaa !3
  %57 = call i64 @PyLong_AsLongLongAndOverflow(ptr noundef %56, ptr noundef %9)
  store i64 %57, ptr %11, align 8, !tbaa !91
  %58 = load i32, ptr %9, align 4, !tbaa !17
  %59 = icmp sgt i32 %58, 0
  br i1 %59, label %60, label %63

60:                                               ; preds = %55
  %61 = load ptr, ptr @PyExc_OverflowError, align 8, !tbaa !3
  %62 = call ptr (ptr, ptr, ...) @PyErr_Format(ptr noundef %61, ptr noundef @.str.89, i64 noundef 9223372036854775807)
  br label %84

63:                                               ; preds = %55
  %64 = load ptr, ptr %6, align 8, !tbaa !3
  %65 = call i64 @PyLong_AsLongLongAndOverflow(ptr noundef %64, ptr noundef %9)
  store i64 %65, ptr %12, align 8, !tbaa !91
  %66 = load i32, ptr %9, align 4, !tbaa !17
  %67 = icmp ne i32 %66, 0
  br i1 %67, label %75, label %68

68:                                               ; preds = %63
  %69 = load i64, ptr %11, align 8, !tbaa !91
  %70 = icmp sgt i64 %69, 1
  br i1 %70, label %71, label %75

71:                                               ; preds = %68
  %72 = load i64, ptr %12, align 8, !tbaa !91
  %73 = load i64, ptr %11, align 8, !tbaa !91
  %74 = call ptr @perm_comb_small(i64 noundef %72, i64 noundef %73, i32 noundef 0)
  store ptr %74, ptr %8, align 8, !tbaa !3
  br label %79

75:                                               ; preds = %68, %63
  %76 = load ptr, ptr %6, align 8, !tbaa !3
  %77 = load i64, ptr %11, align 8, !tbaa !91
  %78 = call ptr @perm_comb(ptr noundef %76, i64 noundef %77, i32 noundef 0)
  store ptr %78, ptr %8, align 8, !tbaa !3
  br label %79

79:                                               ; preds = %75, %71
  br label %80

80:                                               ; preds = %79, %52
  %81 = load ptr, ptr %6, align 8, !tbaa !3
  call void @Py_DECREF(ptr noundef %81)
  %82 = load ptr, ptr %7, align 8, !tbaa !3
  call void @Py_DECREF(ptr noundef %82)
  %83 = load ptr, ptr %8, align 8, !tbaa !3
  store ptr %83, ptr %4, align 8
  store i32 1, ptr %13, align 4
  br label %87

84:                                               ; preds = %60, %54, %41, %36
  %85 = load ptr, ptr %6, align 8, !tbaa !3
  call void @Py_DECREF(ptr noundef %85)
  %86 = load ptr, ptr %7, align 8, !tbaa !3
  call void @Py_DECREF(ptr noundef %86)
  store ptr null, ptr %4, align 8
  store i32 1, ptr %13, align 4
  br label %87

87:                                               ; preds = %84, %80, %31, %25, %16
  call void @llvm.lifetime.end.p0(i64 8, ptr %12) #10
  call void @llvm.lifetime.end.p0(i64 8, ptr %11) #10
  call void @llvm.lifetime.end.p0(i64 4, ptr %10) #10
  call void @llvm.lifetime.end.p0(i64 4, ptr %9) #10
  call void @llvm.lifetime.end.p0(i64 8, ptr %8) #10
  %88 = load ptr, ptr %4, align 8
  ret ptr %88
}

; Function Attrs: nounwind uwtable
define internal ptr @math_perm(ptr noundef %0, ptr noundef %1, i64 noundef %2) #0 {
  %4 = alloca ptr, align 8
  %5 = alloca ptr, align 8
  %6 = alloca i64, align 8
  %7 = alloca ptr, align 8
  %8 = alloca ptr, align 8
  %9 = alloca ptr, align 8
  store ptr %0, ptr %4, align 8, !tbaa !3
  store ptr %1, ptr %5, align 8, !tbaa !9
  store i64 %2, ptr %6, align 8, !tbaa !11
  call void @llvm.lifetime.start.p0(i64 8, ptr %7) #10
  store ptr null, ptr %7, align 8, !tbaa !3
  call void @llvm.lifetime.start.p0(i64 8, ptr %8) #10
  call void @llvm.lifetime.start.p0(i64 8, ptr %9) #10
  store ptr @_Py_NoneStruct, ptr %9, align 8, !tbaa !3
  %10 = load i64, ptr %6, align 8, !tbaa !11
  %11 = icmp sle i64 1, %10
  br i1 %11, label %12, label %15

12:                                               ; preds = %3
  %13 = load i64, ptr %6, align 8, !tbaa !11
  %14 = icmp sle i64 %13, 2
  br i1 %14, label %20, label %15

15:                                               ; preds = %12, %3
  %16 = load i64, ptr %6, align 8, !tbaa !11
  %17 = call i32 @_PyArg_CheckPositional(ptr noundef @.str.54, i64 noundef %16, i64 noundef 1, i64 noundef 2)
  %18 = icmp ne i32 %17, 0
  br i1 %18, label %20, label %19

19:                                               ; preds = %15
  br label %36

20:                                               ; preds = %15, %12
  %21 = load ptr, ptr %5, align 8, !tbaa !9
  %22 = getelementptr ptr, ptr %21, i64 0
  %23 = load ptr, ptr %22, align 8, !tbaa !3
  store ptr %23, ptr %8, align 8, !tbaa !3
  %24 = load i64, ptr %6, align 8, !tbaa !11
  %25 = icmp slt i64 %24, 2
  br i1 %25, label %26, label %27

26:                                               ; preds = %20
  br label %31

27:                                               ; preds = %20
  %28 = load ptr, ptr %5, align 8, !tbaa !9
  %29 = getelementptr ptr, ptr %28, i64 1
  %30 = load ptr, ptr %29, align 8, !tbaa !3
  store ptr %30, ptr %9, align 8, !tbaa !3
  br label %31

31:                                               ; preds = %27, %26
  %32 = load ptr, ptr %4, align 8, !tbaa !3
  %33 = load ptr, ptr %8, align 8, !tbaa !3
  %34 = load ptr, ptr %9, align 8, !tbaa !3
  %35 = call ptr @math_perm_impl(ptr noundef %32, ptr noundef %33, ptr noundef %34)
  store ptr %35, ptr %7, align 8, !tbaa !3
  br label %36

36:                                               ; preds = %31, %19
  %37 = load ptr, ptr %7, align 8, !tbaa !3
  call void @llvm.lifetime.end.p0(i64 8, ptr %9) #10
  call void @llvm.lifetime.end.p0(i64 8, ptr %8) #10
  call void @llvm.lifetime.end.p0(i64 8, ptr %7) #10
  ret ptr %37
}