; Function Attrs: nounwind uwtable
define internal ptr @math_perm(ptr readnone captures(none) %0, ptr noundef readonly captures(none) %1, i64 noundef %2) #0 {
  %4 = alloca i32, align 4
  %5 = add i64 %2, -1
  %or.cond = icmp ult i64 %5, 2
  br i1 %or.cond, label %8, label %6

6:                                                ; preds = %3
  %7 = tail call i32 @_PyArg_CheckPositional(ptr noundef nonnull @.str.54, i64 noundef %2, i64 noundef 1, i64 noundef 2) #16
  %.not = icmp eq i32 %7, 0
  br i1 %.not, label %85, label %8

8:                                                ; preds = %3, %6
  %9 = load ptr, ptr %1, align 8, !tbaa !12
  %10 = icmp slt i64 %2, 2
  br i1 %10, label %.thread, label %11

.thread:                                          ; preds = %8
  call void @llvm.lifetime.start.p0(i64 4, ptr nonnull %4) #16
  br label %15

11:                                               ; preds = %8
  %12 = getelementptr i8, ptr %1, i64 8
  %13 = load ptr, ptr %12, align 8, !tbaa !12
  call void @llvm.lifetime.start.p0(i64 4, ptr nonnull %4) #16
  %14 = icmp eq ptr %13, @_Py_NoneStruct
  br i1 %14, label %15, label %17

15:                                               ; preds = %.thread, %11
  %16 = tail call ptr @math_factorial(ptr readnone poison, ptr noundef %9)
  br label %math_perm_impl.exit

17:                                               ; preds = %11
  %18 = tail call ptr @PyNumber_Index(ptr noundef %9) #16
  %19 = icmp eq ptr %18, null
  br i1 %19, label %math_perm_impl.exit, label %20

20:                                               ; preds = %17
  %21 = tail call ptr @PyNumber_Index(ptr noundef %13) #16
  %22 = icmp eq ptr %21, null
  br i1 %22, label %23, label %29

23:                                               ; preds = %20
  %24 = load i32, ptr %18, align 8, !tbaa !13
  %.not.i39.i = icmp sgt i32 %24, -1
  br i1 %.not.i39.i, label %25, label %math_perm_impl.exit

25:                                               ; preds = %23
  %26 = add nsw i32 %24, -1
  store i32 %26, ptr %18, align 8, !tbaa !13
  %27 = icmp eq i32 %26, 0
  br i1 %27, label %28, label %math_perm_impl.exit

28:                                               ; preds = %25
  tail call void @_Py_Dealloc(ptr noundef nonnull %18) #16
  br label %math_perm_impl.exit

29:                                               ; preds = %20
  %30 = getelementptr i8, ptr %18, i64 16
  %.val45.i = load i64, ptr %30, align 8, !tbaa !45
  %31 = and i64 %.val45.i, 3
  %32 = icmp eq i64 %31, 2
  br i1 %32, label %33, label %35

33:                                               ; preds = %29
  %34 = load ptr, ptr @PyExc_ValueError, align 8, !tbaa !12
  tail call void @PyErr_SetString(ptr noundef %34, ptr noundef nonnull @.str.87) #16
  br label %74

35:                                               ; preds = %29
  %36 = getelementptr i8, ptr %21, i64 16
  %.val.i = load i64, ptr %36, align 8, !tbaa !45
  %37 = and i64 %.val.i, 3
  %38 = icmp eq i64 %37, 2
  br i1 %38, label %39, label %41

39:                                               ; preds = %35
  %40 = load ptr, ptr @PyExc_ValueError, align 8, !tbaa !12
  tail call void @PyErr_SetString(ptr noundef %40, ptr noundef nonnull @.str.88) #16
  br label %74

41:                                               ; preds = %35
  %42 = tail call i32 @PyObject_RichCompareBool(ptr noundef nonnull %18, ptr noundef nonnull %21, i32 noundef 0) #16
  %.not.i = icmp eq i32 %42, 0
  br i1 %.not.i, label %47, label %43

43:                                               ; preds = %41
  %44 = icmp sgt i32 %42, 0
  br i1 %44, label %45, label %74

45:                                               ; preds = %43
  %46 = tail call ptr @PyLong_FromLong(i64 noundef 0) #16
  br label %63

47:                                               ; preds = %41
  %48 = call i64 @PyLong_AsLongLongAndOverflow(ptr noundef nonnull %21, ptr noundef nonnull %4) #16
  %49 = load i32, ptr %4, align 4, !tbaa !14
  %50 = icmp sgt i32 %49, 0
  br i1 %50, label %51, label %54

51:                                               ; preds = %47
  %52 = load ptr, ptr @PyExc_OverflowError, align 8, !tbaa !12
  %53 = call ptr (ptr, ptr, ...) @PyErr_Format(ptr noundef %52, ptr noundef nonnull @.str.89, i64 noundef 9223372036854775807) #16
  br label %74

54:                                               ; preds = %47
  %55 = call i64 @PyLong_AsLongLongAndOverflow(ptr noundef nonnull %18, ptr noundef nonnull %4) #16
  %56 = load i32, ptr %4, align 4, !tbaa !14
  %57 = icmp eq i32 %56, 0
  %58 = icmp sgt i64 %48, 1
  %or.cond.i = select i1 %57, i1 %58, i1 false
  br i1 %or.cond.i, label %59, label %61

59:                                               ; preds = %54
  %60 = call fastcc ptr @perm_comb_small(i64 noundef %55, i64 noundef %48, i32 noundef 0)
  br label %63

61:                                               ; preds = %54
  %62 = call fastcc ptr @perm_comb(ptr noundef %18, i64 noundef %48, i32 noundef 0)
  br label %63

63:                                               ; preds = %61, %59, %45
  %.027.i = phi ptr [ %46, %45 ], [ %60, %59 ], [ %62, %61 ]
  %64 = load i32, ptr %18, align 8, !tbaa !13
  %.not.i37.i = icmp sgt i32 %64, -1
  br i1 %.not.i37.i, label %65, label %Py_DECREF.exit38.i

65:                                               ; preds = %63
  %66 = add nsw i32 %64, -1
  store i32 %66, ptr %18, align 8, !tbaa !13
  %67 = icmp eq i32 %66, 0
  br i1 %67, label %68, label %Py_DECREF.exit38.i

68:                                               ; preds = %65
  call void @_Py_Dealloc(ptr noundef nonnull %18) #16
  br label %Py_DECREF.exit38.i

Py_DECREF.exit38.i:                               ; preds = %68, %65, %63
  %69 = load i32, ptr %21, align 8, !tbaa !13
  %.not.i35.i = icmp sgt i32 %69, -1
  br i1 %.not.i35.i, label %70, label %math_perm_impl.exit

70:                                               ; preds = %Py_DECREF.exit38.i
  %71 = add nsw i32 %69, -1
  store i32 %71, ptr %21, align 8, !tbaa !13
  %72 = icmp eq i32 %71, 0
  br i1 %72, label %73, label %math_perm_impl.exit

73:                                               ; preds = %70
  call void @_Py_Dealloc(ptr noundef nonnull %21) #16
  br label %math_perm_impl.exit

74:                                               ; preds = %51, %43, %39, %33
  %75 = load i32, ptr %18, align 8, !tbaa !13
  %.not.i33.i = icmp sgt i32 %75, -1
  br i1 %.not.i33.i, label %76, label %Py_DECREF.exit34.i

76:                                               ; preds = %74
  %77 = add nsw i32 %75, -1
  store i32 %77, ptr %18, align 8, !tbaa !13
  %78 = icmp eq i32 %77, 0
  br i1 %78, label %79, label %Py_DECREF.exit34.i

79:                                               ; preds = %76
  call void @_Py_Dealloc(ptr noundef nonnull %18) #16
  br label %Py_DECREF.exit34.i

Py_DECREF.exit34.i:                               ; preds = %79, %76, %74
  %80 = load i32, ptr %21, align 8, !tbaa !13
  %.not.i.i = icmp sgt i32 %80, -1
  br i1 %.not.i.i, label %81, label %math_perm_impl.exit

81:                                               ; preds = %Py_DECREF.exit34.i
  %82 = add nsw i32 %80, -1
  store i32 %82, ptr %21, align 8, !tbaa !13
  %83 = icmp eq i32 %82, 0
  br i1 %83, label %84, label %math_perm_impl.exit

84:                                               ; preds = %81
  call void @_Py_Dealloc(ptr noundef nonnull %21) #16
  br label %math_perm_impl.exit

math_perm_impl.exit:                              ; preds = %15, %17, %23, %25, %28, %Py_DECREF.exit38.i, %70, %73, %Py_DECREF.exit34.i, %81, %84
  %.0.i = phi ptr [ %16, %15 ], [ null, %17 ], [ null, %23 ], [ null, %25 ], [ null, %28 ], [ %.027.i, %Py_DECREF.exit38.i ], [ %.027.i, %70 ], [ %.027.i, %73 ], [ null, %Py_DECREF.exit34.i ], [ null, %81 ], [ null, %84 ]
  call void @llvm.lifetime.end.p0(i64 4, ptr nonnull %4) #16
  br label %85

85:                                               ; preds = %6, %math_perm_impl.exit
  %.010 = phi ptr [ %.0.i, %math_perm_impl.exit ], [ null, %6 ]
  ret ptr %.010
}